target datalayout = "e-m:e-p270:32:32-p271:32:32-p272:64:64-i64:64-i128:128-f80:128-n8:16:32:64-S128"
target triple = "x86_64-pc-linux-gnu"

%struct.ge_precomp = type { [10 x i32], [10 x i32], [10 x i32] }
%struct.ge_p3 = type { [10 x i32], [10 x i32], [10 x i32], [10 x i32] }
%struct.ge_p1p1 = type { [10 x i32], [10 x i32], [10 x i32], [10 x i32] }
%struct.ge_p2 = type { [10 x i32], [10 x i32], [10 x i32] }

; Function Attrs: nounwind uwtable
define internal void @fe_copy(ptr noundef %0, ptr noundef %1) #0 {
  %3 = alloca ptr, align 8
  %4 = alloca ptr, align 8
  store ptr %0, ptr %3, align 8, !tbaa !26
  store ptr %1, ptr %4, align 8, !tbaa !26
  %5 = load ptr, ptr %3, align 8, !tbaa !26
  %6 = load ptr, ptr %4, align 8, !tbaa !26
  call void @llvm.memmove.p0.p0.i64(ptr align 4 %5, ptr align 4 %6, i64 40, i1 false)
  ret void
}

; Function Attrs: nounwind uwtable
define internal void @ge_p3_to_p2(ptr noundef %0, ptr noundef %1) #0 {
  %3 = alloca ptr, align 8
  %4 = alloca ptr, align 8
  store ptr %0, ptr %3, align 8, !tbaa !19
  store ptr %1, ptr %4, align 8, !tbaa !19
  %5 = load ptr, ptr %3, align 8, !tbaa !19
  %6 = getelementptr inbounds nuw %struct.ge_p2, ptr %5, i32 0, i32 0
  %7 = getelementptr inbounds [10 x i32], ptr %6, i64 0, i64 0
  %8 = load ptr, ptr %4, align 8, !tbaa !19
  %9 = getelementptr inbounds nuw %struct.ge_p3, ptr %8, i32 0, i32 0
  %10 = getelementptr inbounds [10 x i32], ptr %9, i64 0, i64 0
  call void @fe_copy(ptr noundef %7, ptr noundef %10)
  %11 = load ptr, ptr %3, align 8, !tbaa !19
  %12 = getelementptr inbounds nuw %struct.ge_p2, ptr %11, i32 0, i32 1
  %13 = getelementptr inbounds [10 x i32], ptr %12, i64 0, i64 0
  %14 = load ptr, ptr %4, align 8, !tbaa !19
  %15 = getelementptr inbounds nuw %struct.ge_p3, ptr %14, i32 0, i32 1
  %16 = getelementptr inbounds [10 x i32], ptr %15, i64 0, i64 0
  call void @fe_copy(ptr noundef %13, ptr noundef %16)
  %17 = load ptr, ptr %3, align 8, !tbaa !19
  %18 = getelementptr inbounds nuw %struct.ge_p2, ptr %17, i32 0, i32 2
  %19 = getelementptr inbounds [10 x i32], ptr %18, i64 0, i64 0
  %20 = load ptr, ptr %4, align 8, !tbaa !19
  %21 = getelementptr inbounds nuw %struct.ge_p3, ptr %20, i32 0, i32 2
  %22 = getelementptr inbounds [10 x i32], ptr %21, i64 0, i64 0
  call void @fe_copy(ptr noundef %19, ptr noundef %22)
  ret void
}

; Function Attrs: nounwind uwtable
define internal void @fe_1(ptr noundef %0) #0 {
  %2 = alloca ptr, align 8
  store ptr %0, ptr %2, align 8, !tbaa !26
  %3 = load ptr, ptr %2, align 8, !tbaa !26
  call void @llvm.memset.p0.i64(ptr align 4 %3, i8 0, i64 40, i1 false)
  %4 = load ptr, ptr %2, align 8, !tbaa !26
  %5 = getelementptr inbounds i32, ptr %4, i64 0
  store i32 1, ptr %5, align 4, !tbaa !17
  ret void
}

; Function Attrs: nounwind uwtable
define internal void @fe_0(ptr noundef %0) #0 {
  %2 = alloca ptr, align 8
  store ptr %0, ptr %2, align 8, !tbaa !26
  %3 = load ptr, ptr %2, align 8, !tbaa !26
  call void @llvm.memset.p0.i64(ptr align 4 %3, i8 0, i64 40, i1 false)
  ret void
}

; Function Attrs: nounwind uwtable
define internal void @ge_p1p1_to_p2(ptr noundef %0, ptr noundef %1) #0 {
  %3 = alloca ptr, align 8
  %4 = alloca ptr, align 8
  store ptr %0, ptr %3, align 8, !tbaa !19
  store ptr %1, ptr %4, align 8, !tbaa !19
  %5 = load ptr, ptr %3, align 8, !tbaa !19
  %6 = getelementptr inbounds nuw %struct.ge_p2, ptr %5, i32 0, i32 0
  %7 = getelementptr inbounds [10 x i32], ptr %6, i64 0, i64 0
  %8 = load ptr, ptr %4, align 8, !tbaa !19
  %9 = getelementptr inbounds nuw %struct.ge_p1p1, ptr %8, i32 0, i32 0
  %10 = getelementptr inbounds [10 x i32], ptr %9, i64 0, i64 0
  %11 = load ptr, ptr %4, align 8, !tbaa !19
  %12 = getelementptr inbounds nuw %struct.ge_p1p1, ptr %11, i32 0, i32 3
  %13 = getelementptr inbounds [10 x i32], ptr %12, i64 0, i64 0
  call void @fe_mul(ptr noundef %7, ptr noundef %10, ptr noundef %13)
  %14 = load ptr, ptr %3, align 8, !tbaa !19
  %15 = getelementptr inbounds nuw %struct.ge_p2, ptr %14, i32 0, i32 1
  %16 = getelementptr inbounds [10 x i32], ptr %15, i64 0, i64 0
  %17 = load ptr, ptr %4, align 8, !tbaa !19
  %18 = getelementptr inbounds nuw %struct.ge_p1p1, ptr %17, i32 0, i32 1
  %19 = getelementptr inbounds [10 x i32], ptr %18, i64 0, i64 0
  %20 = load ptr, ptr %4, align 8, !tbaa !19
  %21 = getelementptr inbounds nuw %struct.ge_p1p1, ptr %20, i32 0, i32 2
  %22 = getelementptr inbounds [10 x i32], ptr %21, i64 0, i64 0
  call void @fe_mul(ptr noundef %16, ptr noundef %19, ptr noundef %22)
  %23 = load ptr, ptr %3, align 8, !tbaa !19
  %24 = getelementptr inbounds nuw %struct.ge_p2, ptr %23, i32 0, i32 2
  %25 = getelementptr inbounds [10 x i32], ptr %24, i64 0, i64 0
  %26 = load ptr, ptr %4, align 8, !tbaa !19
  %27 = getelementptr inbounds nuw %struct.ge_p1p1, ptr %26, i32 0, i32 2
  %28 = getelementptr inbounds [10 x i32], ptr %27, i64 0, i64 0
  %29 = load ptr, ptr %4, align 8, !tbaa !19
  %30 = getelementptr inbounds nuw %struct.ge_p1p1, ptr %29, i32 0, i32 3
  %31 = getelementptr inbounds [10 x i32], ptr %30, i64 0, i64 0
  call void @fe_mul(ptr noundef %25, ptr noundef %28, ptr noundef %31)
  ret void
}

; Function Attrs: nounwind uwtable
define internal void @ge_p3_dbl(ptr noundef %0, ptr noundef %1) #0 {
  %3 = alloca ptr, align 8
  %4 = alloca ptr, align 8
  %5 = alloca %struct.ge_p2, align 4
  store ptr %0, ptr %3, align 8, !tbaa !19
  store ptr %1, ptr %4, align 8, !tbaa !19
  call void @llvm.lifetime.start.p0(i64 120, ptr %5) #6
  %6 = load ptr, ptr %4, align 8, !tbaa !19
  call void @ge_p3_to_p2(ptr noundef %5, ptr noundef %6)
  %7 = load ptr, ptr %3, align 8, !tbaa !19
  call void @ge_p2_dbl(ptr noundef %7, ptr noundef %5)
  call void @llvm.lifetime.end.p0(i64 120, ptr %5) #6
  ret void
}

; Function Attrs: nounwind uwtable
define internal void @ge_p1p1_to_p3(ptr noundef %0, ptr noundef %1) #0 {
  %3 = alloca ptr, align 8
  %4 = alloca ptr, align 8
  store ptr %0, ptr %3, align 8, !tbaa !19
  store ptr %1, ptr %4, align 8, !tbaa !19
  %5 = load ptr, ptr %3, align 8, !tbaa !19
  %6 = getelementptr inbounds nuw %struct.ge_p3, ptr %5, i32 0, i32 0
  %7 = getelementptr inbounds [10 x i32], ptr %6, i64 0, i64 0
  %8 = load ptr, ptr %4, align 8, !tbaa !19
  %9 = getelementptr inbounds nuw %struct.ge_p1p1, ptr %8, i32 0, i32 0
  %10 = getelementptr inbounds [10 x i32], ptr %9, i64 0, i64 0
  %11 = load ptr, ptr %4, align 8, !tbaa !19
  %12 = getelementptr inbounds nuw %struct.ge_p1p1, ptr %11, i32 0, i32 3
  %13 = getelementptr inbounds [10 x i32], ptr %12, i64 0, i64 0
  call void @fe_mul(ptr noundef %7, ptr noundef %10, ptr noundef %13)
  %14 = load ptr, ptr %3, align 8, !tbaa !19
  %15 = getelementptr inbounds nuw %struct.ge_p3, ptr %14, i32 0, i32 1
  %16 = getelementptr inbounds [10 x i32], ptr %15, i64 0, i64 0
  %17 = load ptr, ptr %4, align 8, !tbaa !19
  %18 = getelementptr inbounds nuw %struct.ge_p1p1, ptr %17, i32 0, i32 1
  %19 = getelementptr inbounds [10 x i32], ptr %18, i64 0, i64 0
  %20 = load ptr, ptr %4, align 8, !tbaa !19
  %21 = getelementptr inbounds nuw %struct.ge_p1p1, ptr %20, i32 0, i32 2
  %22 = getelementptr inbounds [10 x i32], ptr %21, i64 0, i64 0
  call void @fe_mul(ptr noundef %16, ptr noundef %19, ptr noundef %22)
  %23 = load ptr, ptr %3, align 8, !tbaa !19
  %24 = getelementptr inbounds nuw %struct.ge_p3, ptr %23, i32 0, i32 2
  %25 = getelementptr inbounds [10 x i32], ptr %24, i64 0, i64 0
  %26 = load ptr, ptr %4, align 8, !tbaa !19
  %27 = getelementptr inbounds nuw %struct.ge_p1p1, ptr %26, i32 0, i32 2
  %28 = getelementptr inbounds [10 x i32], ptr %27, i64 0, i64 0
  %29 = load ptr, ptr %4, align 8, !tbaa !19
  %30 = getelementptr inbounds nuw %struct.ge_p1p1, ptr %29, i32 0, i32 3
  %31 = getelementptr inbounds [10 x i32], ptr %30, i64 0, i64 0
  call void @fe_mul(ptr noundef %25, ptr noundef %28, ptr noundef %31)
  %32 = load ptr, ptr %3, align 8, !tbaa !19
  %33 = getelementptr inbounds nuw %struct.ge_p3, ptr %32, i32 0, i32 3
  %34 = getelementptr inbounds [10 x i32], ptr %33, i64 0, i64 0
  %35 = load ptr, ptr %4, align 8, !tbaa !19
  %36 = getelementptr inbounds nuw %struct.ge_p1p1, ptr %35, i32 0, i32 0
  %37 = getelementptr inbounds [10 x i32], ptr %36, i64 0, i64 0
  %38 = load ptr, ptr %4, align 8, !tbaa !19
  %39 = getelementptr inbounds nuw %struct.ge_p1p1, ptr %38, i32 0, i32 1
  %40 = getelementptr inbounds [10 x i32], ptr %39, i64 0, i64 0
  call void @fe_mul(ptr noundef %34, ptr noundef %37, ptr noundef %40)
  ret void
}

; Function Attrs: nounwind uwtable
define internal void @ge_p3_0(ptr noundef %0) #0 {
  %2 = alloca ptr, align 8
  store ptr %0, ptr %2, align 8, !tbaa !19
  %3 = load ptr, ptr %2, align 8, !tbaa !19
  %4 = getelementptr inbounds nuw %struct.ge_p3, ptr %3, i32 0, i32 0
  %5 = getelementptr inbounds [10 x i32], ptr %4, i64 0, i64 0
  call void @fe_0(ptr noundef %5)
  %6 = load ptr, ptr %2, align 8, !tbaa !19
  %7 = getelementptr inbounds nuw %struct.ge_p3, ptr %6, i32 0, i32 1
  %8 = getelementptr inbounds [10 x i32], ptr %7, i64 0, i64 0
  call void @fe_1(ptr noundef %8)
  %9 = load ptr, ptr %2, align 8, !tbaa !19
  %10 = getelementptr inbounds nuw %struct.ge_p3, ptr %9, i32 0, i32 2
  %11 = getelementptr inbounds [10 x i32], ptr %10, i64 0, i64 0
  call void @fe_1(ptr noundef %11)
  %12 = load ptr, ptr %2, align 8, !tbaa !19
  %13 = getelementptr inbounds nuw %struct.ge_p3, ptr %12, i32 0, i32 3
  %14 = getelementptr inbounds [10 x i32], ptr %13, i64 0, i64 0
  call void @fe_0(ptr noundef %14)
  ret void
}

; Function Attrs: nounwind uwtable
define internal void @ge_scalarmult_base(ptr noundef %0, ptr noundef %1) #0 {
  %3 = alloca ptr, align 8
  %4 = alloca ptr, align 8
  %5 = alloca [64 x i8], align 16
  %6 = alloca i8, align 1
  %7 = alloca %struct.ge_p1p1, align 4
  %8 = alloca %struct.ge_p2, align 4
  %9 = alloca %struct.ge_precomp, align 4
  %10 = alloca i32, align 4
  store ptr %0, ptr %3, align 8, !tbaa !19
  store ptr %1, ptr %4, align 8, !tbaa !3
  call void @llvm.lifetime.start.p0(i64 64, ptr %5) #6
  call void @llvm.lifetime.start.p0(i64 1, ptr %6) #6
  call void @llvm.lifetime.start.p0(i64 160, ptr %7) #6
  call void @llvm.lifetime.start.p0(i64 120, ptr %8) #6
  call void @llvm.lifetime.start.p0(i64 120, ptr %9) #6
  call void @llvm.lifetime.start.p0(i64 4, ptr %10) #6
  store i32 0, ptr %10, align 4, !tbaa !17
  br label %11

11:                                               ; preds = %43, %2
  %12 = load i32, ptr %10, align 4, !tbaa !17
  %13 = icmp slt i32 %12, 32
  br i1 %13, label %14, label %46

14:                                               ; preds = %11
  %15 = load ptr, ptr %4, align 8, !tbaa !3
  %16 = load i32, ptr %10, align 4, !tbaa !17
  %17 = sext i32 %16 to i64
  %18 = getelementptr inbounds i8, ptr %15, i64 %17
  %19 = load i8, ptr %18, align 1, !tbaa !10
  %20 = zext i8 %19 to i32
  %21 = ashr i32 %20, 0
  %22 = and i32 %21, 15
  %23 = trunc i32 %22 to i8
  %24 = load i32, ptr %10, align 4, !tbaa !17
  %25 = mul nsw i32 2, %24
  %26 = add nsw i32 %25, 0
  %27 = sext i32 %26 to i64
  %28 = getelementptr inbounds [64 x i8], ptr %5, i64 0, i64 %27
  store i8 %23, ptr %28, align 1, !tbaa !10
  %29 = load ptr, ptr %4, align 8, !tbaa !3
  %30 = load i32, ptr %10, align 4, !tbaa !17
  %31 = sext i32 %30 to i64
  %32 = getelementptr inbounds i8, ptr %29, i64 %31
  %33 = load i8, ptr %32, align 1, !tbaa !10
  %34 = zext i8 %33 to i32
  %35 = ashr i32 %34, 4
  %36 = and i32 %35, 15
  %37 = trunc i32 %36 to i8
  %38 = load i32, ptr %10, align 4, !tbaa !17
  %39 = mul nsw i32 2, %38
  %40 = add nsw i32 %39, 1
  %41 = sext i32 %40 to i64
  %42 = getelementptr inbounds [64 x i8], ptr %5, i64 0, i64 %41
  store i8 %37, ptr %42, align 1, !tbaa !10
  br label %43

43:                                               ; preds = %14
  %44 = load i32, ptr %10, align 4, !tbaa !17
  %45 = add nsw i32 %44, 1
  store i32 %45, ptr %10, align 4, !tbaa !17
  br label %11, !llvm.loop !20

46:                                               ; preds = %11
  store i8 0, ptr %6, align 1, !tbaa !10
  store i32 0, ptr %10, align 4, !tbaa !17
  br label %47

47:                                               ; preds = %81, %46
  %48 = load i32, ptr %10, align 4, !tbaa !17
  %49 = icmp slt i32 %48, 63
  br i1 %49, label %50, label %84

50:                                               ; preds = %47
  %51 = load i8, ptr %6, align 1, !tbaa !10
  %52 = sext i8 %51 to i32
  %53 = load i32, ptr %10, align 4, !tbaa !17
  %54 = sext i32 %53 to i64
  %55 = getelementptr inbounds [64 x i8], ptr %5, i64 0, i64 %54
  %56 = load i8, ptr %55, align 1, !tbaa !10
  %57 = sext i8 %56 to i32
  %58 = add nsw i32 %57, %52
  %59 = trunc i32 %58 to i8
  store i8 %59, ptr %55, align 1, !tbaa !10
  %60 = load i32, ptr %10, align 4, !tbaa !17
  %61 = sext i32 %60 to i64
  %62 = getelementptr inbounds [64 x i8], ptr %5, i64 0, i64 %61
  %63 = load i8, ptr %62, align 1, !tbaa !10
  %64 = sext i8 %63 to i32
  %65 = add nsw i32 %64, 8
  %66 = trunc i32 %65 to i8
  store i8 %66, ptr %6, align 1, !tbaa !10
  %67 = load i8, ptr %6, align 1, !tbaa !10
  %68 = sext i8 %67 to i32
  %69 = ashr i32 %68, 4
  %70 = trunc i32 %69 to i8
  store i8 %70, ptr %6, align 1, !tbaa !10
  %71 = load i8, ptr %6, align 1, !tbaa !10
  %72 = sext i8 %71 to i32
  %73 = shl i32 %72, 4
  %74 = load i32, ptr %10, align 4, !tbaa !17
  %75 = sext i32 %74 to i64
  %76 = getelementptr inbounds [64 x i8], ptr %5, i64 0, i64 %75
  %77 = load i8, ptr %76, align 1, !tbaa !10
  %78 = sext i8 %77 to i32
  %79 = sub nsw i32 %78, %73
  %80 = trunc i32 %79 to i8
  store i8 %80, ptr %76, align 1, !tbaa !10
  br label %81

81:                                               ; preds = %50
  %82 = load i32, ptr %10, align 4, !tbaa !17
  %83 = add nsw i32 %82, 1
  store i32 %83, ptr %10, align 4, !tbaa !17
  br label %47, !llvm.loop !22

84:                                               ; preds = %47
  %85 = load i8, ptr %6, align 1, !tbaa !10
  %86 = sext i8 %85 to i32
  %87 = getelementptr inbounds [64 x i8], ptr %5, i64 0, i64 63
  %88 = load i8, ptr %87, align 1, !tbaa !10
  %89 = sext i8 %88 to i32
  %90 = add nsw i32 %89, %86
  %91 = trunc i32 %90 to i8
  store i8 %91, ptr %87, align 1, !tbaa !10
  %92 = load ptr, ptr %3, align 8, !tbaa !19
  call void @ge_p3_0(ptr noundef %92)
  store i32 1, ptr %10, align 4, !tbaa !17
  br label %93

93:                                               ; preds = %105, %84
  %94 = load i32, ptr %10, align 4, !tbaa !17
  %95 = icmp slt i32 %94, 64
  br i1 %95, label %96, label %108

96:                                               ; preds = %93
  %97 = load i32, ptr %10, align 4, !tbaa !17
  %98 = sdiv i32 %97, 2
  %99 = load i32, ptr %10, align 4, !tbaa !17
  %100 = sext i32 %99 to i64
  %101 = getelementptr inbounds [64 x i8], ptr %5, i64 0, i64 %100
  %102 = load i8, ptr %101, align 1, !tbaa !10
  call void @table_select(ptr noundef %9, i32 noundef %98, i8 noundef signext %102)
  %103 = load ptr, ptr %3, align 8, !tbaa !19
  call void @ge_madd(ptr noundef %7, ptr noundef %103, ptr noundef %9)
  %104 = load ptr, ptr %3, align 8, !tbaa !19
  call void @ge_p1p1_to_p3(ptr noundef %104, ptr noundef %7)
  br label %105

105:                                              ; preds = %96
  %106 = load i32, ptr %10, align 4, !tbaa !17
  %107 = add nsw i32 %106, 2
  store i32 %107, ptr %10, align 4, !tbaa !17
  br label %93, !llvm.loop !23

108:                                              ; preds = %93
  %109 = load ptr, ptr %3, align 8, !tbaa !19
  call void @ge_p3_dbl(ptr noundef %7, ptr noundef %109)
  call void @ge_p1p1_to_p2(ptr noundef %8, ptr noundef %7)
  call void @ge_p2_dbl(ptr noundef %7, ptr noundef %8)
  call void @ge_p1p1_to_p2(ptr noundef %8, ptr noundef %7)
  call void @ge_p2_dbl(ptr noundef %7, ptr noundef %8)
  call void @ge_p1p1_to_p2(ptr noundef %8, ptr noundef %7)
  call void @ge_p2_dbl(ptr noundef %7, ptr noundef %8)
  %110 = load ptr, ptr %3, align 8, !tbaa !19
  call void @ge_p1p1_to_p3(ptr noundef %110, ptr noundef %7)
  store i32 0, ptr %10, align 4, !tbaa !17
  br label %111

111:                                              ; preds = %123, %108
  %112 = load i32, ptr %10, align 4, !tbaa !17
  %113 = icmp slt i32 %112, 64
  br i1 %113, label %114, label %126

114:                                              ; preds = %111
  %115 = load i32, ptr %10, align 4, !tbaa !17
  %116 = sdiv i32 %115, 2
  %117 = load i32, ptr %10, align 4, !tbaa !17
  %118 = sext i32 %117 to i64
  %119 = getelementptr inbounds [64 x i8], ptr %5, i64 0, i64 %118
  %120 = load i8, ptr %119, align 1, !tbaa !10
  call void @table_select(ptr noundef %9, i32 noundef %116, i8 noundef signext %120)
  %121 = load ptr, ptr %3, align 8, !tbaa !19
  call void @ge_madd(ptr noundef %7, ptr noundef %121, ptr noundef %9)
  %122 = load ptr, ptr %3, align 8, !tbaa !19
  call void @ge_p1p1_to_p3(ptr noundef %122, ptr noundef %7)
  br label %123

123:                                              ; preds = %114
  %124 = load i32, ptr %10, align 4, !tbaa !17
  %125 = add nsw i32 %124, 2
  store i32 %125, ptr %10, align 4, !tbaa !17
  br label %111, !llvm.loop !24

126:                                              ; preds = %111
  %127 = getelementptr inbounds [64 x i8], ptr %5, i64 0, i64 0
  call void @OPENSSL_cleanse(ptr noundef %127, i64 noundef 64)
  call void @llvm.lifetime.end.p0(i64 4, ptr %10) #6
  call void @llvm.lifetime.end.p0(i64 120, ptr %9) #6
  call void @llvm.lifetime.end.p0(i64 120, ptr %8) #6
  call void @llvm.lifetime.end.p0(i64 160, ptr %7) #6
  call void @llvm.lifetime.end.p0(i64 1, ptr %6) #6
  call void @llvm.lifetime.end.p0(i64 64, ptr %5) #6
  ret void
}